; Function Attrs: mustprogress uwtable
define noundef i64 @_ZN7Archive11GetStartPosEv(ptr noundef nonnull align 8 dereferenceable(57108) %0) local_unnamed_addr #0 align 2 {
  %2 = getelementptr inbounds i8, ptr %0, i64 48856
  %3 = load i64, ptr %2, align 8
  %4 = getelementptr inbounds i8, ptr %0, i64 13800
  %5 = load i32, ptr %4, align 8
  %6 = getelementptr inbounds i8, ptr %0, i64 48840
  %7 = load i32, ptr %6, align 8
  %8 = icmp eq i32 %7, 2
  br i1 %8, label %9, label %12

9:                                                ; preds = %1
  %10 = getelementptr inbounds i8, ptr %0, i64 13820
  %11 = load i32, ptr %10, align 4
  br label %20

12:                                               ; preds = %1
  %13 = getelementptr inbounds i8, ptr %0, i64 13932
  %14 = load i32, ptr %13, align 4
  %15 = getelementptr inbounds i8, ptr %0, i64 13820
  %16 = load i32, ptr %15, align 4
  %17 = zext i32 %16 to i64
  %18 = tail call noundef i32 @_ZN7Archive14FullHeaderSizeEm(ptr noundef nonnull align 8 dereferenceable(57108) %0, i64 noundef %17)
  %19 = add i32 %18, %14
  br label %20

20:                                               ; preds = %12, %9
  %.pn.in = phi i32 [ %11, %9 ], [ %19, %12 ]
  %21 = zext i32 %5 to i64
  %22 = add i64 %3, %21
  %.pn = zext i32 %.pn.in to i64
  %.0 = add nsw i64 %22, %.pn
  ret i64 %.0
}